target datalayout = "e-m:e-p270:32:32-p271:32:32-p272:64:64-i64:64-i128:128-f80:128-n8:16:32:64-S128"
target triple = "x86_64-pc-linux-gnu"

%class.ExceptionMark = type { ptr }
%class.oopDesc = type { %class.markWord, %"union.oopDesc::_metadata" }
%class.markWord = type { i64 }
%"union.oopDesc::_metadata" = type { ptr }
%"struct.Atomic::PlatformLoad.23" = type { i8 }
%"struct.Atomic::LoadImpl.51" = type { i8 }

@g_assert_poison = external global ptr, align 8
@.str.9 = private unnamed_addr constant [44 x i8] c"src/hotspot/share/runtime/sharedRuntime.cpp\00", align 1
@CheckJNICalls = external global i8, align 1
@.str.46 = private unnamed_addr constant [32 x i8] c"Object has been unlocked by JNI\00", align 1

; Function Attrs: mustprogress nounwind uwtable
define linkonce_odr hidden void @_ZN8markWordC2Em(ptr noundef nonnull align 8 dereferenceable(8) %0, i64 noundef %1) unnamed_addr #1 comdat align 2 {
  %3 = alloca ptr, align 8
  %4 = alloca i64, align 8
  store ptr %0, ptr %3, align 8
  store i64 %1, ptr %4, align 8
  %5 = load ptr, ptr %3, align 8
  %6 = getelementptr inbounds %class.markWord, ptr %5, i32 0, i32 0
  %7 = load i64, ptr %4, align 8
  store i64 %7, ptr %6, align 8
  ret void
}

; Function Attrs: mustprogress nounwind uwtable
define linkonce_odr hidden i64 @_ZN20PrimitiveConversions9TranslateI8markWordvE7recoverEm(i64 noundef %0) #1 comdat align 2 {
  %2 = alloca %class.markWord, align 8
  %3 = alloca i64, align 8
  store i64 %0, ptr %3, align 8
  %4 = load i64, ptr %3, align 8
  call void @_ZN8markWordC2Em(ptr noundef nonnull align 8 dereferenceable(8) %2, i64 noundef %4)
  %5 = getelementptr inbounds %class.markWord, ptr %2, i32 0, i32 0
  %6 = load i64, ptr %5, align 8
  ret i64 %6
}

; Function Attrs: mustprogress nounwind uwtable
define linkonce_odr hidden noundef i64 @_ZNK6Atomic12PlatformLoadILm8EEclImEET_PVKS3_(ptr noundef nonnull align 1 dereferenceable(1) %0, ptr noundef %1) #1 comdat align 2 {
  %3 = alloca ptr, align 8
  %4 = alloca ptr, align 8
  store ptr %0, ptr %3, align 8
  store ptr %1, ptr %4, align 8
  %5 = load ptr, ptr %4, align 8
  %6 = load volatile i64, ptr %5, align 8
  ret i64 %6
}

; Function Attrs: mustprogress nounwind uwtable
define linkonce_odr hidden i64 @_ZNK6Atomic8LoadImplI8markWordNS_12PlatformLoadILm8EEEvEclEPVKS1_(ptr noundef nonnull align 1 dereferenceable(1) %0, ptr noundef %1) #1 comdat align 2 {
  %3 = alloca %class.markWord, align 8
  %4 = alloca ptr, align 8
  %5 = alloca ptr, align 8
  %6 = alloca i64, align 8
  %7 = alloca %"struct.Atomic::PlatformLoad.23", align 1
  store ptr %0, ptr %4, align 8
  store ptr %1, ptr %5, align 8
  %8 = load ptr, ptr %5, align 8
  %9 = call noundef i64 @_ZNK6Atomic12PlatformLoadILm8EEclImEET_PVKS3_(ptr noundef nonnull align 1 dereferenceable(1) %7, ptr noundef %8)
  store i64 %9, ptr %6, align 8
  %10 = load i64, ptr %6, align 8
  %11 = call i64 @_ZN20PrimitiveConversions9TranslateI8markWordvE7recoverEm(i64 noundef %10)
  %12 = getelementptr inbounds %class.markWord, ptr %3, i32 0, i32 0
  store i64 %11, ptr %12, align 8
  %13 = getelementptr inbounds %class.markWord, ptr %3, i32 0, i32 0
  %14 = load i64, ptr %13, align 8
  ret i64 %14
}

; Function Attrs: mustprogress nounwind uwtable
define linkonce_odr hidden noundef i64 @_Z9mask_bitsll(i64 noundef %0, i64 noundef %1) #1 comdat {
  %3 = alloca i64, align 8
  %4 = alloca i64, align 8
  store i64 %0, ptr %3, align 8
  store i64 %1, ptr %4, align 8
  %5 = load i64, ptr %3, align 8
  %6 = load i64, ptr %4, align 8
  %7 = and i64 %5, %6
  ret i64 %7
}

; Function Attrs: mustprogress nounwind uwtable
define linkonce_odr hidden noundef i64 @_ZNK8markWord5valueEv(ptr noundef nonnull align 8 dereferenceable(8) %0) #1 comdat align 2 {
  %2 = alloca ptr, align 8
  store ptr %0, ptr %2, align 8
  %3 = load ptr, ptr %2, align 8
  %4 = getelementptr inbounds %class.markWord, ptr %3, i32 0, i32 0
  %5 = load i64, ptr %4, align 8
  ret i64 %5
}

; Function Attrs: mustprogress nounwind uwtable
define linkonce_odr hidden i64 @_ZN6Atomic4loadI8markWordEET_PVKS2_(ptr noundef %0) #1 comdat align 2 {
  %2 = alloca %class.markWord, align 8
  %3 = alloca ptr, align 8
  %4 = alloca %"struct.Atomic::LoadImpl.51", align 1
  store ptr %0, ptr %3, align 8
  %5 = load ptr, ptr %3, align 8
  %6 = call i64 @_ZNK6Atomic8LoadImplI8markWordNS_12PlatformLoadILm8EEEvEclEPVKS1_(ptr noundef nonnull align 1 dereferenceable(1) %4, ptr noundef %5)
  %7 = getelementptr inbounds %class.markWord, ptr %2, i32 0, i32 0
  store i64 %6, ptr %7, align 8
  %8 = getelementptr inbounds %class.markWord, ptr %2, i32 0, i32 0
  %9 = load i64, ptr %8, align 8
  ret i64 %9
}

; Function Attrs: mustprogress nounwind uwtable
define linkonce_odr hidden noundef zeroext i1 @_ZNK8markWord11is_unlockedEv(ptr noundef nonnull align 8 dereferenceable(8) %0) #1 comdat align 2 {
  %2 = alloca ptr, align 8
  store ptr %0, ptr %2, align 8
  %3 = load ptr, ptr %2, align 8
  %4 = call noundef i64 @_ZNK8markWord5valueEv(ptr noundef nonnull align 8 dereferenceable(8) %3)
  %5 = call noundef i64 @_Z9mask_bitsll(i64 noundef %4, i64 noundef 3)
  %6 = icmp eq i64 %5, 1
  ret i1 %6
}

; Function Attrs: mustprogress nounwind uwtable
define linkonce_odr hidden i64 @_ZNK7oopDesc4markEv(ptr noundef nonnull align 8 dereferenceable(16) %0) #1 comdat align 2 {
  %2 = alloca %class.markWord, align 8
  %3 = alloca ptr, align 8
  store ptr %0, ptr %3, align 8
  %4 = load ptr, ptr %3, align 8
  %5 = getelementptr inbounds %class.oopDesc, ptr %4, i32 0, i32 0
  %6 = call i64 @_ZN6Atomic4loadI8markWordEET_PVKS2_(ptr noundef %5)
  %7 = getelementptr inbounds %class.markWord, ptr %2, i32 0, i32 0
  store i64 %6, ptr %7, align 8
  %8 = getelementptr inbounds %class.markWord, ptr %2, i32 0, i32 0
  %9 = load i64, ptr %8, align 8
  ret i64 %9
}

; Function Attrs: mustprogress nounwind uwtable
define linkonce_odr hidden noundef zeroext i1 @_ZNK7oopDesc11is_unlockedEv(ptr noundef nonnull align 8 dereferenceable(16) %0) #1 comdat align 2 {
  %2 = alloca ptr, align 8
  %3 = alloca %class.markWord, align 8
  store ptr %0, ptr %2, align 8
  %4 = load ptr, ptr %2, align 8
  %5 = call i64 @_ZNK7oopDesc4markEv(ptr noundef nonnull align 8 dereferenceable(16) %4)
  %6 = getelementptr inbounds %class.markWord, ptr %3, i32 0, i32 0
  store i64 %5, ptr %6, align 8
  %7 = call noundef zeroext i1 @_ZNK8markWord11is_unlockedEv(ptr noundef nonnull align 8 dereferenceable(8) %3)
  ret i1 %7
}

; Function Attrs: mustprogress nounwind uwtable
define hidden void @_ZN13SharedRuntime19monitor_exit_helperEP7oopDescP9BasicLockP10JavaThread(ptr noundef %0, ptr noundef %1, ptr noundef %2) #1 align 2 {
  %4 = alloca ptr, align 8
  %5 = alloca ptr, align 8
  %6 = alloca ptr, align 8
  %7 = alloca %class.ExceptionMark, align 8
  %8 = alloca i32, align 4
  store ptr %0, ptr %4, align 8
  store ptr %1, ptr %5, align 8
  store ptr %2, ptr %6, align 8
  %9 = load ptr, ptr %6, align 8
  call void @_ZN13ExceptionMarkC1EP10JavaThread(ptr noundef nonnull align 8 dereferenceable(8) %7, ptr noundef %9)
  %10 = load ptr, ptr %4, align 8
  %11 = call noundef zeroext i1 @_ZNK7oopDesc11is_unlockedEv(ptr noundef nonnull align 8 dereferenceable(16) %10)
  br i1 %11, label %12, label %21

12:                                               ; preds = %3
  %13 = load i8, ptr @CheckJNICalls, align 1
  %14 = trunc i8 %13 to i1
  br i1 %14, label %15, label %20

15:                                               ; preds = %12
  br label %16

16:                                               ; preds = %15
  %17 = load ptr, ptr @g_assert_poison, align 8
  store i8 88, ptr %17, align 1
  call void (i32, ptr, i32, ptr, ...) @_Z12report_fatal11VMErrorTypePKciS1_z(i32 noundef -536870912, ptr noundef @.str.9, i32 noundef 1922, ptr noundef @.str.46) #12
  unreachable

18:                                               ; No predecessors!
  br label %19

19:                                               ; preds = %18
  br label %20

20:                                               ; preds = %19, %12
  store i32 1, ptr %8, align 4
  br label %25

21:                                               ; preds = %3
  %22 = load ptr, ptr %4, align 8
  %23 = load ptr, ptr %5, align 8
  %24 = load ptr, ptr %6, align 8
  call void @_ZN18ObjectSynchronizer4exitEP7oopDescP9BasicLockP10JavaThread(ptr noundef %22, ptr noundef %23, ptr noundef %24)
  store i32 0, ptr %8, align 4
  br label %25

25:                                               ; preds = %21, %20
  call void @_ZN13ExceptionMarkD1Ev(ptr noundef nonnull align 8 dereferenceable(8) %7) #10
  %26 = load i32, ptr %8, align 4
  switch i32 %26, label %28 [
    i32 0, label %27
    i32 1, label %27
  ]

27:                                               ; preds = %25, %25
  ret void

28:                                               ; preds = %25
  unreachable
}

; Function Attrs: mustprogress nounwind uwtable
define linkonce_odr hidden void @_ZN2os22verify_stack_alignmentEv() #1 comdat align 2 {
  ret void
}

; Function Attrs: mustprogress nounwind uwtable
define hidden void @_ZN13SharedRuntime28complete_monitor_unlocking_CEP7oopDescP9BasicLockP10JavaThread(ptr noundef %0, ptr noundef %1, ptr noundef %2) #1 align 2 {
  %4 = alloca ptr, align 8
  %5 = alloca ptr, align 8
  %6 = alloca ptr, align 8
  store ptr %0, ptr %4, align 8
  store ptr %1, ptr %5, align 8
  store ptr %2, ptr %6, align 8
  call void @_ZN2os22verify_stack_alignmentEv()
  %7 = load ptr, ptr %4, align 8
  %8 = load ptr, ptr %5, align 8
  %9 = load ptr, ptr %6, align 8
  call void @_ZN13SharedRuntime19monitor_exit_helperEP7oopDescP9BasicLockP10JavaThread(ptr noundef %7, ptr noundef %8, ptr noundef %9)
  ret void
}