; Function Attrs: mustprogress nounwind uwtable
define hidden void @_ZN13SharedRuntime28complete_monitor_unlocking_CEP7oopDescP9BasicLockP10JavaThread(ptr noundef %0, ptr noundef %1, ptr noundef %2) local_unnamed_addr #0 align 2 {
  %4 = alloca %class.ExceptionMark, align 8
  call void @llvm.lifetime.start.p0(i64 8, ptr nonnull %4)
  call void @_ZN13ExceptionMarkC1EP10JavaThread(ptr noundef nonnull align 8 dereferenceable(8) %4, ptr noundef %2) #18
  %5 = load volatile i64, ptr %0, align 8
  %6 = and i64 %5, 3
  %7 = icmp eq i64 %6, 1
  br i1 %7, label %8, label %13

8:                                                ; preds = %3
  %9 = load i8, ptr @CheckJNICalls, align 1
  %10 = trunc i8 %9 to i1
  br i1 %10, label %11, label %_ZN13SharedRuntime19monitor_exit_helperEP7oopDescP9BasicLockP10JavaThread.exit

11:                                               ; preds = %8
  %12 = load ptr, ptr @g_assert_poison, align 8
  store i8 88, ptr %12, align 1
  call void (i32, ptr, i32, ptr, ...) @_Z12report_fatal11VMErrorTypePKciS1_z(i32 noundef -536870912, ptr noundef nonnull @.str.9, i32 noundef 1922, ptr noundef nonnull @.str.46) #19
  unreachable

13:                                               ; preds = %3
  call void @_ZN18ObjectSynchronizer4exitEP7oopDescP9BasicLockP10JavaThread(ptr noundef nonnull %0, ptr noundef %1, ptr noundef %2) #18
  br label %_ZN13SharedRuntime19monitor_exit_helperEP7oopDescP9BasicLockP10JavaThread.exit

_ZN13SharedRuntime19monitor_exit_helperEP7oopDescP9BasicLockP10JavaThread.exit: ; preds = %8, %13
  call void @_ZN13ExceptionMarkD1Ev(ptr noundef nonnull align 8 dereferenceable(8) %4) #18
  call void @llvm.lifetime.end.p0(i64 8, ptr nonnull %4)
  ret void
}